; Function Attrs: mustprogress uwtable
define void @_ZN5folly12EventHandler11initHandlerEPNS_9EventBaseENS_13NetworkSocketE(ptr noundef nonnull align 8 dereferenceable(184) %0, ptr noundef %1, i32 %2) local_unnamed_addr #1 align 2 {
  tail call void @_ZN5folly12EventHandler19ensureNotRegisteredEPKc(ptr noundef nonnull align 8 dereferenceable(184) %0, ptr noundef nonnull @__func__._ZN5folly12EventHandler11initHandlerEPNS_9EventBaseENS_13NetworkSocketE)
  %4 = getelementptr inbounds nuw i8, ptr %0, i64 8
  tail call void @event_set(ptr noundef nonnull align 8 dereferenceable(168) %4, i32 noundef %2, i16 noundef signext 0, ptr noundef nonnull @_ZN5folly12EventHandler16libeventCallbackEisPv, ptr noundef nonnull %0)
  %5 = tail call noundef i32 @_ZN5folly14EventBaseEvent17eb_event_base_setEPNS_9EventBaseE(ptr noundef nonnull align 8 dereferenceable(168) %4, ptr noundef %1)
  %6 = getelementptr inbounds nuw i8, ptr %0, i64 176
  store ptr %1, ptr %6, align 8, !tbaa !10
  ret void
}